; Function Attrs: mustprogress uwtable
define noundef range(i32 0, 10) i32 @_ZN32pxrInternal_v0_24__pxrReserved__13HioGetHioTypeENS_9HioFormatE(i32 noundef %0) local_unnamed_addr #0 {
  %2 = alloca %"class.pxrInternal_v0_24__pxrReserved__::TfCallContext", align 8
  %3 = alloca %"class.pxrInternal_v0_24__pxrReserved__::TfCallContext", align 8
  switch i32 %0, label %17 [
    i32 0, label %22
    i32 1, label %22
    i32 2, label %22
    i32 3, label %22
    i32 36, label %22
    i32 37, label %22
    i32 38, label %22
    i32 39, label %22
    i32 42, label %22
    i32 43, label %22
    i32 44, label %22
    i32 45, label %22
    i32 4, label %4
    i32 5, label %4
    i32 6, label %4
    i32 7, label %4
    i32 8, label %5
    i32 9, label %5
    i32 10, label %5
    i32 11, label %5
    i32 12, label %6
    i32 13, label %6
    i32 14, label %6
    i32 15, label %6
    i32 40, label %6
    i32 41, label %6
    i32 16, label %7
    i32 17, label %7
    i32 18, label %7
    i32 19, label %7
    i32 20, label %8
    i32 21, label %8
    i32 22, label %8
    i32 23, label %8
    i32 24, label %9
    i32 25, label %9
    i32 26, label %9
    i32 27, label %9
    i32 28, label %10
    i32 29, label %10
    i32 30, label %10
    i32 31, label %10
    i32 32, label %11
    i32 33, label %11
    i32 34, label %11
    i32 35, label %11
    i32 -1, label %12
    i32 46, label %12
  ]

4:                                                ; preds = %1, %1, %1, %1
  br label %22

5:                                                ; preds = %1, %1, %1, %1
  br label %22

6:                                                ; preds = %1, %1, %1, %1, %1, %1
  br label %22

7:                                                ; preds = %1, %1, %1, %1
  br label %22

8:                                                ; preds = %1, %1, %1, %1
  br label %22

9:                                                ; preds = %1, %1, %1, %1
  br label %22

10:                                               ; preds = %1, %1, %1, %1
  br label %22

11:                                               ; preds = %1, %1, %1, %1
  br label %22

12:                                               ; preds = %1, %1
  store ptr @.str, ptr %2, align 8
  %13 = getelementptr inbounds nuw i8, ptr %2, i64 8
  store ptr @__func__._ZN32pxrInternal_v0_24__pxrReserved__13HioGetHioTypeENS_9HioFormatE, ptr %13, align 8
  %14 = getelementptr inbounds nuw i8, ptr %2, i64 16
  store i64 155, ptr %14, align 8
  %15 = getelementptr inbounds nuw i8, ptr %2, i64 24
  store ptr @__PRETTY_FUNCTION__._ZN32pxrInternal_v0_24__pxrReserved__13HioGetHioTypeENS_9HioFormatE, ptr %15, align 8
  %16 = getelementptr inbounds nuw i8, ptr %2, i64 32
  store i8 0, ptr %16, align 8
  call void (ptr, i32, ptr, ...) @_ZN32pxrInternal_v0_24__pxrReserved__18Tf_PostErrorHelperERKNS_13TfCallContextENS_16TfDiagnosticTypeEPKcz(ptr noundef nonnull align 8 dereferenceable(33) %2, i32 noundef 1, ptr noundef nonnull @.str.3)
  br label %22

17:                                               ; preds = %1
  store ptr @.str, ptr %3, align 8
  %18 = getelementptr inbounds nuw i8, ptr %3, i64 8
  store ptr @__func__._ZN32pxrInternal_v0_24__pxrReserved__13HioGetHioTypeENS_9HioFormatE, ptr %18, align 8
  %19 = getelementptr inbounds nuw i8, ptr %3, i64 16
  store i64 158, ptr %19, align 8
  %20 = getelementptr inbounds nuw i8, ptr %3, i64 24
  store ptr @__PRETTY_FUNCTION__._ZN32pxrInternal_v0_24__pxrReserved__13HioGetHioTypeENS_9HioFormatE, ptr %20, align 8
  %21 = getelementptr inbounds nuw i8, ptr %3, i64 32
  store i8 0, ptr %21, align 8
  call void (ptr, i32, ptr, ...) @_ZN32pxrInternal_v0_24__pxrReserved__18Tf_PostErrorHelperERKNS_13TfCallContextENS_16TfDiagnosticTypeEPKcz(ptr noundef nonnull align 8 dereferenceable(33) %3, i32 noundef 1, ptr noundef nonnull @.str.4)
  br label %22

22:                                               ; preds = %1, %1, %1, %1, %1, %1, %1, %1, %1, %1, %1, %1, %17, %12, %11, %10, %9, %8, %7, %6, %5, %4
  %.0 = phi i32 [ 0, %17 ], [ 0, %12 ], [ 6, %11 ], [ 5, %10 ], [ 4, %9 ], [ 3, %8 ], [ 9, %7 ], [ 8, %6 ], [ 7, %5 ], [ 2, %4 ], [ 0, %1 ], [ 0, %1 ], [ 0, %1 ], [ 0, %1 ], [ 0, %1 ], [ 0, %1 ], [ 0, %1 ], [ 0, %1 ], [ 0, %1 ], [ 0, %1 ], [ 0, %1 ], [ 0, %1 ]
  ret i32 %.0
}